; ModuleID = '45/407.c'
source_filename = "45/407.c"
target datalayout = "e-m:e-p270:32:32-p271:32:32-p272:64:64-i64:64-f80:128-n8:16:32:64-S128"
target triple = "x86_64-pc-linux-gnu"

@.str = private unnamed_addr constant [6 x i8] c"%s %s\00", align 1
@.str.1 = private unnamed_addr constant [3 x i8] c"%d\00", align 1

; Function Attrs: noinline nounwind uwtable
define dso_local i32 @main() #0 {
  %1 = alloca i32, align 4
  %2 = alloca [100 x i8], align 16
  %3 = alloca [100 x i8], align 16
  %4 = alloca i32, align 4
  %5 = alloca i32, align 4
  %6 = alloca i32, align 4
  %7 = alloca i32, align 4
  %8 = alloca i32, align 4
  %9 = alloca i8*, align 8
  %10 = alloca i8*, align 8
  store i32 0, i32* %1, align 4
  %11 = getelementptr inbounds [100 x i8], [100 x i8]* %2, i64 0, i64 0
  %12 = getelementptr inbounds [100 x i8], [100 x i8]* %3, i64 0, i64 0
  %13 = call i32 (i8*, ...) @__isoc99_scanf(i8* getelementptr inbounds ([6 x i8], [6 x i8]* @.str, i64 0, i64 0), i8* %11, i8* %12)
  %14 = getelementptr inbounds [100 x i8], [100 x i8]* %2, i64 0, i64 0
  %15 = call i64 @strlen(i8* %14) #3
  %16 = trunc i64 %15 to i32
  store i32 %16, i32* %6, align 4
  %17 = getelementptr inbounds [100 x i8], [100 x i8]* %3, i64 0, i64 0
  %18 = call i64 @strlen(i8* %17) #3
  %19 = trunc i64 %18 to i32
  store i32 %19, i32* %7, align 4
  %20 = getelementptr inbounds [100 x i8], [100 x i8]* %2, i64 0, i64 0
  store i8* %20, i8** %9, align 8
  %21 = getelementptr inbounds [100 x i8], [100 x i8]* %3, i64 0, i64 0
  store i8* %21, i8** %10, align 8
  store i32 0, i32* %4, align 4
  br label %22

22:                                               ; preds = %71, %0
  %23 = load i32, i32* %4, align 4
  %24 = load i32, i32* %7, align 4
  %25 = icmp slt i32 %23, %24
  br i1 %25, label %26, label %74

26:                                               ; preds = %22
  store i32 0, i32* %8, align 4
  %27 = load i32, i32* %4, align 4
  %28 = sext i32 %27 to i64
  %29 = getelementptr inbounds [100 x i8], [100 x i8]* %3, i64 0, i64 %28
  %30 = load i8, i8* %29, align 1
  %31 = sext i8 %30 to i32
  %32 = load i8*, i8** %9, align 8
  %33 = load i8, i8* %32, align 1
  %34 = sext i8 %33 to i32
  %35 = icmp eq i32 %31, %34
  br i1 %35, label %36, label %70

36:                                               ; preds = %26
  %37 = load i32, i32* %4, align 4
  %38 = sext i32 %37 to i64
  %39 = getelementptr inbounds [100 x i8], [100 x i8]* %3, i64 0, i64 %38
  store i8* %39, i8** %10, align 8
  store i32 0, i32* %5, align 4
  br label %40

40:                                               ; preds = %60, %36
  %41 = load i32, i32* %5, align 4
  %42 = load i32, i32* %6, align 4
  %43 = icmp slt i32 %41, %42
  br i1 %43, label %44, label %63

44:                                               ; preds = %40
  %45 = load i8*, i8** %9, align 8
  %46 = load i32, i32* %5, align 4
  %47 = sext i32 %46 to i64
  %48 = getelementptr inbounds i8, i8* %45, i64 %47
  %49 = load i8, i8* %48, align 1
  %50 = sext i8 %49 to i32
  %51 = load i8*, i8** %10, align 8
  %52 = load i32, i32* %5, align 4
  %53 = sext i32 %52 to i64
  %54 = getelementptr inbounds i8, i8* %51, i64 %53
  %55 = load i8, i8* %54, align 1
  %56 = sext i8 %55 to i32
  %57 = icmp ne i32 %50, %56
  br i1 %57, label %58, label %59

58:                                               ; preds = %44
  store i32 1, i32* %8, align 4
  br label %63

59:                                               ; preds = %44
  br label %60

60:                                               ; preds = %59
  %61 = load i32, i32* %5, align 4
  %62 = add nsw i32 %61, 1
  store i32 %62, i32* %5, align 4
  br label %40

63:                                               ; preds = %58, %40
  %64 = load i32, i32* %8, align 4
  %65 = icmp eq i32 %64, 0
  br i1 %65, label %66, label %69

66:                                               ; preds = %63
  %67 = load i32, i32* %4, align 4
  %68 = call i32 (i8*, ...) @printf(i8* getelementptr inbounds ([3 x i8], [3 x i8]* @.str.1, i64 0, i64 0), i32 %67)
  br label %74

69:                                               ; preds = %63
  br label %70

70:                                               ; preds = %69, %26
  br label %71

71:                                               ; preds = %70
  %72 = load i32, i32* %4, align 4
  %73 = add nsw i32 %72, 1
  store i32 %73, i32* %4, align 4
  br label %22

74:                                               ; preds = %66, %22
  ret i32 0
}

declare dso_local i32 @__isoc99_scanf(i8*, ...) #1

; Function Attrs: nounwind readonly
declare dso_local i64 @strlen(i8*) #2

declare dso_local i32 @printf(i8*, ...) #1


!llvm.module.flags = !{!0}
!llvm.ident = !{!1}

!0 = !{i32 1, !"wchar_size", i32 4}
!1 = !{!"clang version 10.0.0-4ubuntu1 "}
