; ModuleID = 'source-C-CXX/44/407.c'
source_filename = "source-C-CXX/44/407.c"
target datalayout = "e-m:e-p270:32:32-p271:32:32-p272:64:64-i64:64-f80:128-n8:16:32:64-S128"
target triple = "x86_64-pc-linux-gnu"

@.str = private unnamed_addr constant [6 x i8] c"%s %s\00", align 1
@.str.1 = private unnamed_addr constant [3 x i8] c"%d\00", align 1

; Function Attrs: nofree nounwind sspstrong uwtable
define dso_local i32 @main() local_unnamed_addr #0 {
  %1 = alloca [100 x i8], align 16
  %2 = alloca [100 x i8], align 16
  %3 = getelementptr inbounds [100 x i8], [100 x i8]* %1, i64 0, i64 0
  call void @llvm.lifetime.start.p0i8(i64 100, i8* nonnull %3) #4
  %4 = getelementptr inbounds [100 x i8], [100 x i8]* %2, i64 0, i64 0
  call void @llvm.lifetime.start.p0i8(i64 100, i8* nonnull %4) #4
  %5 = call i32 (i8*, ...) @__isoc99_scanf(i8* getelementptr inbounds ([6 x i8], [6 x i8]* @.str, i64 0, i64 0), i8* nonnull %3, i8* nonnull %4)
  %6 = call i64 @strlen(i8* noundef nonnull %3) #5
  %7 = call i64 @strlen(i8* noundef nonnull %4) #5
  %8 = trunc i64 %7 to i32
  %9 = load i8, i8* %3, align 16
  %10 = icmp sgt i32 %8, 0
  br i1 %10, label %11, label %53

11:                                               ; preds = %0
  %12 = trunc i64 %6 to i32
  %13 = icmp sgt i32 %12, 0
  %14 = and i64 %7, 4294967295
  br i1 %13, label %15, label %41

15:                                               ; preds = %11
  %16 = and i64 %6, 4294967295
  %17 = getelementptr inbounds [100 x i8], [100 x i8]* %1, i64 0, i64 0
  %18 = load i8, i8* %17, align 16
  %19 = icmp eq i8 %18, %9
  br label %20

20:                                               ; preds = %15, %38
  %21 = phi i64 [ 0, %15 ], [ %39, %38 ]
  %22 = getelementptr inbounds [100 x i8], [100 x i8]* %2, i64 0, i64 %21
  %23 = load i8, i8* %22, align 1, !tbaa !5
  %24 = icmp eq i8 %23, %9
  %25 = xor i1 %24, true
  %26 = xor i1 %19, true
  %27 = select i1 %25, i1 true, i1 %26
  br i1 %27, label %38, label %28

28:                                               ; preds = %20, %31
  %29 = phi i64 [ %37, %31 ], [ 1, %20 ]
  %30 = icmp eq i64 %29, %16
  br i1 %30, label %46, label %31, !llvm.loop !8

31:                                               ; preds = %28
  %32 = getelementptr inbounds i8, i8* %22, i64 %29
  %33 = load i8, i8* %32, align 1, !tbaa !5
  %34 = getelementptr inbounds [100 x i8], [100 x i8]* %1, i64 0, i64 %29
  %35 = load i8, i8* %34, align 1, !tbaa !5
  %36 = icmp eq i8 %35, %33
  %37 = add nuw nsw i64 %29, 1
  br i1 %36, label %28, label %38

38:                                               ; preds = %31, %20
  %39 = add nuw nsw i64 %21, 1
  %40 = icmp eq i64 %39, %14
  br i1 %40, label %53, label %20, !llvm.loop !10

41:                                               ; preds = %11, %50
  %42 = phi i64 [ %51, %50 ], [ 0, %11 ]
  %43 = getelementptr inbounds [100 x i8], [100 x i8]* %2, i64 0, i64 %42
  %44 = load i8, i8* %43, align 1, !tbaa !5
  %45 = icmp eq i8 %44, %9
  br i1 %45, label %46, label %50

46:                                               ; preds = %41, %28
  %47 = phi i64 [ %21, %28 ], [ %42, %41 ]
  %48 = trunc i64 %47 to i32
  %49 = call i32 (i8*, ...) @printf(i8* nonnull dereferenceable(1) getelementptr inbounds ([3 x i8], [3 x i8]* @.str.1, i64 0, i64 0), i32 %48)
  br label %53

50:                                               ; preds = %41
  %51 = add nuw nsw i64 %42, 1
  %52 = icmp eq i64 %51, %14
  br i1 %52, label %53, label %41, !llvm.loop !10

53:                                               ; preds = %50, %38, %0, %46
  call void @llvm.lifetime.end.p0i8(i64 100, i8* nonnull %4) #4
  call void @llvm.lifetime.end.p0i8(i64 100, i8* nonnull %3) #4
  ret i32 0
}

; Function Attrs: argmemonly mustprogress nofree nosync nounwind willreturn
declare void @llvm.lifetime.start.p0i8(i64 immarg, i8* nocapture) #1

; Function Attrs: nofree nounwind
declare noundef i32 @__isoc99_scanf(i8* nocapture noundef readonly, ...) local_unnamed_addr #2

; Function Attrs: argmemonly mustprogress nofree nounwind readonly willreturn
declare i64 @strlen(i8* nocapture) local_unnamed_addr #3

; Function Attrs: nofree nounwind
declare noundef i32 @printf(i8* nocapture noundef readonly, ...) local_unnamed_addr #2

; Function Attrs: argmemonly mustprogress nofree nosync nounwind willreturn
declare void @llvm.lifetime.end.p0i8(i64 immarg, i8* nocapture) #1


!llvm.module.flags = !{!0, !1, !2, !3}
!llvm.ident = !{!4}

!0 = !{i32 1, !"wchar_size", i32 4}
!1 = !{i32 7, !"PIC Level", i32 2}
!2 = !{i32 7, !"PIE Level", i32 2}
!3 = !{i32 7, !"uwtable", i32 1}
!4 = !{!"clang version 13.0.0"}
!5 = !{!6, !6, i64 0}
!6 = !{!"omnipotent char", !7, i64 0}
!7 = !{!"Simple C/C++ TBAA"}
!8 = distinct !{!8, !9}
!9 = !{!"llvm.loop.mustprogress"}
!10 = distinct !{!10, !9}
